; Function Attrs: nofree norecurse nosync nounwind memory(argmem: readwrite) uwtable
define internal void @limiter8(ptr noundef readonly captures(none) %0, ptr noundef writeonly captures(none) %1, i64 noundef %2, i64 noundef %3, i32 noundef %4, i32 noundef %5, i32 noundef %6, i32 noundef %7) #5 {
  %9 = icmp sgt i32 %5, 0
  %10 = icmp sgt i32 %4, 0
  %or.cond = and i1 %9, %10
  br i1 %or.cond, label %.preheader.us.preheader, label %._crit_edge26

.preheader.us.preheader:                          ; preds = %8
  %wide.trip.count = zext nneg i32 %4 to i64
  br label %.preheader.us

.preheader.us:                                    ; preds = %.preheader.us.preheader, %._crit_edge.us
  %.01925.us = phi i32 [ %20, %._crit_edge.us ], [ 0, %.preheader.us.preheader ]
  %.02024.us = phi ptr [ %18, %._crit_edge.us ], [ %1, %.preheader.us.preheader ]
  %.02123.us = phi ptr [ %19, %._crit_edge.us ], [ %0, %.preheader.us.preheader ]
  br label %11

11:                                               ; preds = %.preheader.us, %11
  %indvars.iv = phi i64 [ 0, %.preheader.us ], [ %indvars.iv.next, %11 ]
  %12 = getelementptr inbounds nuw i8, ptr %.02123.us, i64 %indvars.iv
  %13 = load i8, ptr %12, align 1, !tbaa !58
  %14 = zext i8 %13 to i32
  %15 = icmp sgt i32 %6, %14
  %..i.us = tail call i32 @llvm.smin.i32(i32 %7, i32 %14)
  %.0.i.us = select i1 %15, i32 %6, i32 %..i.us
  %16 = trunc i32 %.0.i.us to i8
  %17 = getelementptr inbounds nuw i8, ptr %.02024.us, i64 %indvars.iv
  store i8 %16, ptr %17, align 1, !tbaa !58
  %indvars.iv.next = add nuw nsw i64 %indvars.iv, 1
  %exitcond.not = icmp eq i64 %indvars.iv.next, %wide.trip.count
  br i1 %exitcond.not, label %._crit_edge.us, label %11, !llvm.loop !59

._crit_edge.us:                                   ; preds = %11
  %18 = getelementptr inbounds i8, ptr %.02024.us, i64 %3
  %19 = getelementptr inbounds i8, ptr %.02123.us, i64 %2
  %20 = add nuw nsw i32 %.01925.us, 1
  %exitcond29.not = icmp eq i32 %20, %5
  br i1 %exitcond29.not, label %._crit_edge26, label %.preheader.us, !llvm.loop !60

._crit_edge26:                                    ; preds = %._crit_edge.us, %8
  ret void
}